target datalayout = "e-m:e-p270:32:32-p271:32:32-p272:64:64-i64:64-i128:128-f80:128-n8:16:32:64-S128"
target triple = "x86_64-pc-linux-gnu"

%class.G1CollectionCandidateList = type { %class.GrowableArray }
%class.GrowableArray = type { %class.GrowableArrayWithAllocator, %class.GrowableArrayMetadata }
%class.GrowableArrayWithAllocator = type { %class.GrowableArrayView }
%class.GrowableArrayView = type { %class.GrowableArrayBase, ptr }
%class.GrowableArrayBase = type { i32, i32 }
%class.GrowableArrayMetadata = type { i64 }
%class.G1CollectionSetCandidates = type { [8 x i8], %class.G1CollectionCandidateList, %class.G1CollectionCandidateList, ptr, i32, i32 }

; Function Attrs: mustprogress nounwind uwtable
define linkonce_odr hidden void @_ZN17GrowableArrayBase5clearEv(ptr noundef nonnull align 4 dereferenceable(8) %0) #1 comdat align 2 {
  %2 = alloca ptr, align 8
  store ptr %0, ptr %2, align 8
  %3 = load ptr, ptr %2, align 8
  %4 = getelementptr inbounds %class.GrowableArrayBase, ptr %3, i32 0, i32 0
  store i32 0, ptr %4, align 4
  ret void
}

; Function Attrs: mustprogress nounwind uwtable
define hidden void @_ZN25G1CollectionCandidateList5clearEv(ptr noundef nonnull align 8 dereferenceable(24) %0) #1 align 2 {
  %2 = alloca ptr, align 8
  store ptr %0, ptr %2, align 8
  %3 = load ptr, ptr %2, align 8
  %4 = getelementptr inbounds %class.G1CollectionCandidateList, ptr %3, i32 0, i32 0
  call void @_ZN17GrowableArrayBase5clearEv(ptr noundef nonnull align 4 dereferenceable(8) %4)
  ret void
}

; Function Attrs: mustprogress nounwind uwtable
define hidden void @_ZN25G1CollectionSetCandidates5clearEv(ptr noundef nonnull align 8 dereferenceable(72) %0) #1 align 2 {
  %2 = alloca ptr, align 8
  %3 = alloca i32, align 4
  store ptr %0, ptr %2, align 8
  %4 = load ptr, ptr %2, align 8
  %5 = getelementptr inbounds %class.G1CollectionSetCandidates, ptr %4, i32 0, i32 1
  call void @_ZN25G1CollectionCandidateList5clearEv(ptr noundef nonnull align 8 dereferenceable(24) %5)
  %6 = getelementptr inbounds %class.G1CollectionSetCandidates, ptr %4, i32 0, i32 2
  call void @_ZN25G1CollectionCandidateList5clearEv(ptr noundef nonnull align 8 dereferenceable(24) %6)
  store i32 0, ptr %3, align 4
  br label %7

7:                                                ; preds = %18, %1
  %8 = load i32, ptr %3, align 4
  %9 = getelementptr inbounds %class.G1CollectionSetCandidates, ptr %4, i32 0, i32 4
  %10 = load i32, ptr %9, align 8
  %11 = icmp ult i32 %8, %10
  br i1 %11, label %12, label %21

12:                                               ; preds = %7
  %13 = getelementptr inbounds %class.G1CollectionSetCandidates, ptr %4, i32 0, i32 3
  %14 = load ptr, ptr %13, align 8
  %15 = load i32, ptr %3, align 4
  %16 = zext i32 %15 to i64
  %17 = getelementptr inbounds i8, ptr %14, i64 %16
  store i8 0, ptr %17, align 1
  br label %18

18:                                               ; preds = %12
  %19 = load i32, ptr %3, align 4
  %20 = add i32 %19, 1
  store i32 %20, ptr %3, align 4
  br label %7, !llvm.loop !9

21:                                               ; preds = %7
  %22 = getelementptr inbounds %class.G1CollectionSetCandidates, ptr %4, i32 0, i32 5
  store i32 0, ptr %22, align 4
  ret void
}

; Function Attrs: mustprogress nounwind uwtable
define hidden void @_ZN25G1CollectionSetCandidates10initializeEj(ptr noundef nonnull align 8 dereferenceable(72) %0, i32 noundef %1) #1 align 2 {
  %3 = alloca ptr, align 8
  %4 = alloca i32, align 4
  store ptr %0, ptr %3, align 8
  store i32 %1, ptr %4, align 4
  %5 = load ptr, ptr %3, align 8
  %6 = load i32, ptr %4, align 4
  %7 = getelementptr inbounds %class.G1CollectionSetCandidates, ptr %5, i32 0, i32 4
  store i32 %6, ptr %7, align 8
  %8 = load i32, ptr %4, align 4
  %9 = zext i32 %8 to i64
  %10 = mul i64 %9, 1
  %11 = call noundef ptr @_Z12AllocateHeapm8MEMFLAGSN17AllocFailStrategy13AllocFailEnumE(i64 noundef %10, i8 noundef zeroext 5, i32 noundef 0)
  %12 = getelementptr inbounds %class.G1CollectionSetCandidates, ptr %5, i32 0, i32 3
  store ptr %11, ptr %12, align 8
  call void @_ZN25G1CollectionSetCandidates5clearEv(ptr noundef nonnull align 8 dereferenceable(72) %5)
  ret void
}