; Function Attrs: mustprogress nounwind uwtable
define hidden void @_ZN25G1CollectionSetCandidates10initializeEj(ptr nocapture noundef nonnull align 8 dereferenceable(72) %0, i32 noundef %1) local_unnamed_addr #0 align 2 {
  %3 = getelementptr inbounds i8, ptr %0, i64 64
  store i32 %1, ptr %3, align 8
  %4 = zext i32 %1 to i64
  %5 = tail call noundef ptr @_Z12AllocateHeapm8MEMFLAGSN17AllocFailStrategy13AllocFailEnumE(i64 noundef %4, i8 noundef zeroext 5, i32 noundef 0) #17
  %6 = getelementptr inbounds i8, ptr %0, i64 56
  store ptr %5, ptr %6, align 8
  %7 = getelementptr inbounds i8, ptr %0, i64 8
  store i32 0, ptr %7, align 8
  %8 = getelementptr inbounds i8, ptr %0, i64 32
  store i32 0, ptr %8, align 8
  %9 = load i32, ptr %3, align 8
  %.not.i = icmp eq i32 %9, 0
  br i1 %.not.i, label %_ZN25G1CollectionSetCandidates5clearEv.exit, label %.lr.ph.i

.lr.ph.i:                                         ; preds = %2, %.lr.ph.i
  %indvars.iv.i = phi i64 [ %indvars.iv.next.i, %.lr.ph.i ], [ 0, %2 ]
  %10 = load ptr, ptr %6, align 8
  %11 = getelementptr inbounds i8, ptr %10, i64 %indvars.iv.i
  store i8 0, ptr %11, align 1
  %indvars.iv.next.i = add nuw nsw i64 %indvars.iv.i, 1
  %12 = load i32, ptr %3, align 8
  %13 = zext i32 %12 to i64
  %14 = icmp ult i64 %indvars.iv.next.i, %13
  br i1 %14, label %.lr.ph.i, label %_ZN25G1CollectionSetCandidates5clearEv.exit, !llvm.loop !12

_ZN25G1CollectionSetCandidates5clearEv.exit:      ; preds = %.lr.ph.i, %2
  %15 = getelementptr inbounds i8, ptr %0, i64 68
  store i32 0, ptr %15, align 4
  ret void
}